target datalayout = "e-m:e-p270:32:32-p271:32:32-p272:64:64-i64:64-i128:128-f80:128-n8:16:32:64-S128"
target triple = "x86_64-pc-linux-gnu"

%struct.ForEachState = type { ptr, i32 }
%struct.PlannerInfo = type { i32, ptr, ptr, i32, ptr, ptr, ptr, ptr, i32, ptr, ptr, ptr, ptr, ptr, ptr, ptr, ptr, i32, ptr, ptr, ptr, ptr, ptr, i8, ptr, ptr, ptr, ptr, ptr, i32, ptr, ptr, ptr, ptr, ptr, ptr, ptr, i32, ptr, ptr, ptr, i32, ptr, ptr, ptr, ptr, ptr, ptr, [8 x ptr], [8 x ptr], ptr, ptr, ptr, ptr, ptr, ptr, ptr, double, double, double, i32, i8, i8, i8, i8, i8, i8, i8, i32, ptr, ptr, i32, i8, i8, i32, ptr, ptr, ptr, ptr, ptr, ptr, i8, ptr }
%struct.PlannerGlobal = type { i32, ptr, ptr, ptr, ptr, ptr, ptr, ptr, ptr, ptr, ptr, ptr, ptr, ptr, ptr, ptr, ptr, i32, i32, i32, i8, i8, i8, i8, i8, ptr }
%struct.List = type { i32, i32, i32, ptr, [0 x %union.ListCell] }
%union.ListCell = type { ptr }
%struct.Query = type { i32, i32, i32, i64, i8, ptr, i32, i8, i8, i8, i8, i8, i8, i8, i8, i8, i8, i8, ptr, ptr, ptr, ptr, ptr, i32, ptr, ptr, i32, ptr, ptr, ptr, ptr, ptr, i8, ptr, ptr, ptr, ptr, ptr, ptr, ptr, i32, ptr, ptr, ptr, ptr, i32, i32 }
%struct.RangeTblEntry = type { i32, ptr, ptr, i32, i32, i8, i8, i32, i32, ptr, ptr, i8, i32, i32, ptr, ptr, ptr, ptr, ptr, i8, ptr, ptr, ptr, i32, i8, ptr, ptr, ptr, ptr, double, ptr, i8, i8, ptr }
%struct.Node = type { i32 }
%struct.CallStmt = type { i32, ptr, ptr, ptr }

; Function Attrs: nounwind uwtable
define dso_local zeroext i1 @extract_query_dependencies_walker(ptr noundef %0, ptr noundef %1) #0 {
  %3 = alloca i1, align 1
  %4 = alloca ptr, align 8
  %5 = alloca ptr, align 8
  %6 = alloca ptr, align 8
  %7 = alloca ptr, align 8
  %8 = alloca ptr, align 8
  %9 = alloca i32, align 4
  %10 = alloca %struct.ForEachState, align 8
  %11 = alloca ptr, align 8
  store ptr %0, ptr %4, align 8
  store ptr %1, ptr %5, align 8
  %12 = load ptr, ptr %4, align 8
  %13 = icmp eq ptr %12, null
  br i1 %13, label %14, label %15

14:                                               ; preds = %2
  store i1 false, ptr %3, align 1
  br label %156

15:                                               ; preds = %2
  %16 = load ptr, ptr %4, align 8
  %17 = getelementptr inbounds nuw %struct.Node, ptr %16, i32 0, i32 0
  %18 = load i32, ptr %17, align 4
  %19 = icmp eq i32 %18, 67
  br i1 %19, label %20, label %150

20:                                               ; preds = %15
  call void @llvm.lifetime.start.p0(i64 8, ptr %6) #8
  %21 = load ptr, ptr %4, align 8
  store ptr %21, ptr %6, align 8
  call void @llvm.lifetime.start.p0(i64 8, ptr %7) #8
  %22 = load ptr, ptr %6, align 8
  %23 = getelementptr inbounds nuw %struct.Query, ptr %22, i32 0, i32 1
  %24 = load i32, ptr %23, align 4
  %25 = icmp eq i32 %24, 6
  br i1 %25, label %26, label %56

26:                                               ; preds = %20
  %27 = load ptr, ptr %6, align 8
  %28 = getelementptr inbounds nuw %struct.Query, ptr %27, i32 0, i32 5
  %29 = load ptr, ptr %28, align 8
  %30 = getelementptr inbounds nuw %struct.Node, ptr %29, i32 0, i32 0
  %31 = load i32, ptr %30, align 4
  %32 = icmp eq i32 %31, 212
  br i1 %32, label %33, label %47

33:                                               ; preds = %26
  call void @llvm.lifetime.start.p0(i64 8, ptr %8) #8
  %34 = load ptr, ptr %6, align 8
  %35 = getelementptr inbounds nuw %struct.Query, ptr %34, i32 0, i32 5
  %36 = load ptr, ptr %35, align 8
  store ptr %36, ptr %8, align 8
  %37 = load ptr, ptr %8, align 8
  %38 = getelementptr inbounds nuw %struct.CallStmt, ptr %37, i32 0, i32 2
  %39 = load ptr, ptr %38, align 8
  %40 = load ptr, ptr %5, align 8
  %41 = call zeroext i1 @extract_query_dependencies_walker(ptr noundef %39, ptr noundef %40)
  %42 = load ptr, ptr %8, align 8
  %43 = getelementptr inbounds nuw %struct.CallStmt, ptr %42, i32 0, i32 3
  %44 = load ptr, ptr %43, align 8
  %45 = load ptr, ptr %5, align 8
  %46 = call zeroext i1 @extract_query_dependencies_walker(ptr noundef %44, ptr noundef %45)
  store i1 false, ptr %3, align 1
  store i32 1, ptr %9, align 4
  call void @llvm.lifetime.end.p0(i64 8, ptr %8) #8
  br label %149

47:                                               ; preds = %26
  %48 = load ptr, ptr %6, align 8
  %49 = getelementptr inbounds nuw %struct.Query, ptr %48, i32 0, i32 5
  %50 = load ptr, ptr %49, align 8
  %51 = call ptr @UtilityContainsQuery(ptr noundef %50)
  store ptr %51, ptr %6, align 8
  %52 = load ptr, ptr %6, align 8
  %53 = icmp eq ptr %52, null
  br i1 %53, label %54, label %55

54:                                               ; preds = %47
  store i1 false, ptr %3, align 1
  store i32 1, ptr %9, align 4
  br label %149

55:                                               ; preds = %47
  br label %56

56:                                               ; preds = %55, %20
  %57 = load ptr, ptr %6, align 8
  %58 = getelementptr inbounds nuw %struct.Query, ptr %57, i32 0, i32 15
  %59 = load i8, ptr %58, align 4, !range !7, !noundef !8
  %60 = trunc i8 %59 to i1
  br i1 %60, label %61, label %66

61:                                               ; preds = %56
  %62 = load ptr, ptr %5, align 8
  %63 = getelementptr inbounds nuw %struct.PlannerInfo, ptr %62, i32 0, i32 2
  %64 = load ptr, ptr %63, align 8
  %65 = getelementptr inbounds nuw %struct.PlannerGlobal, ptr %64, i32 0, i32 21
  store i8 1, ptr %65, align 1
  br label %66

66:                                               ; preds = %61, %56
  call void @llvm.lifetime.start.p0(i64 16, ptr %10) #8
  %67 = getelementptr inbounds nuw %struct.ForEachState, ptr %10, i32 0, i32 0
  %68 = load ptr, ptr %6, align 8
  %69 = getelementptr inbounds nuw %struct.Query, ptr %68, i32 0, i32 19
  %70 = load ptr, ptr %69, align 8
  store ptr %70, ptr %67, align 8
  %71 = getelementptr inbounds nuw %struct.ForEachState, ptr %10, i32 0, i32 1
  store i32 0, ptr %71, align 8
  %72 = getelementptr i8, ptr %10, i64 12
  call void @llvm.memset.p0.i64(ptr align 4 %72, i8 0, i64 4, i1 false)
  br label %73

73:                                               ; preds = %141, %66
  %74 = getelementptr inbounds nuw %struct.ForEachState, ptr %10, i32 0, i32 0
  %75 = load ptr, ptr %74, align 8
  %76 = icmp ne ptr %75, null
  br i1 %76, label %77, label %94

77:                                               ; preds = %73
  %78 = getelementptr inbounds nuw %struct.ForEachState, ptr %10, i32 0, i32 1
  %79 = load i32, ptr %78, align 8
  %80 = getelementptr inbounds nuw %struct.ForEachState, ptr %10, i32 0, i32 0
  %81 = load ptr, ptr %80, align 8
  %82 = getelementptr inbounds nuw %struct.List, ptr %81, i32 0, i32 1
  %83 = load i32, ptr %82, align 4
  %84 = icmp slt i32 %79, %83
  br i1 %84, label %85, label %94

85:                                               ; preds = %77
  %86 = getelementptr inbounds nuw %struct.ForEachState, ptr %10, i32 0, i32 0
  %87 = load ptr, ptr %86, align 8
  %88 = getelementptr inbounds nuw %struct.List, ptr %87, i32 0, i32 3
  %89 = load ptr, ptr %88, align 8
  %90 = getelementptr inbounds nuw %struct.ForEachState, ptr %10, i32 0, i32 1
  %91 = load i32, ptr %90, align 8
  %92 = sext i32 %91 to i64
  %93 = getelementptr inbounds %union.ListCell, ptr %89, i64 %92
  store ptr %93, ptr %7, align 8
  br label %95

94:                                               ; preds = %77, %73
  store ptr null, ptr %7, align 8
  br label %95

95:                                               ; preds = %94, %85
  %96 = phi i32 [ 1, %85 ], [ 0, %94 ]
  %97 = icmp ne i32 %96, 0
  br i1 %97, label %99, label %98

98:                                               ; preds = %95
  store i32 2, ptr %9, align 4
  call void @llvm.lifetime.end.p0(i64 16, ptr %10) #8
  br label %145

99:                                               ; preds = %95
  call void @llvm.lifetime.start.p0(i64 8, ptr %11) #8
  %100 = load ptr, ptr %7, align 8
  %101 = load ptr, ptr %100, align 8
  store ptr %101, ptr %11, align 8
  %102 = load ptr, ptr %11, align 8
  %103 = getelementptr inbounds nuw %struct.RangeTblEntry, ptr %102, i32 0, i32 3
  %104 = load i32, ptr %103, align 8
  %105 = icmp eq i32 %104, 0
  br i1 %105, label %126, label %106

106:                                              ; preds = %99
  %107 = load ptr, ptr %11, align 8
  %108 = getelementptr inbounds nuw %struct.RangeTblEntry, ptr %107, i32 0, i32 3
  %109 = load i32, ptr %108, align 8
  %110 = icmp eq i32 %109, 1
  br i1 %110, label %111, label %116

111:                                              ; preds = %106
  %112 = load ptr, ptr %11, align 8
  %113 = getelementptr inbounds nuw %struct.RangeTblEntry, ptr %112, i32 0, i32 4
  %114 = load i32, ptr %113, align 4
  %115 = icmp ne i32 %114, 0
  br i1 %115, label %126, label %116

116:                                              ; preds = %111, %106
  %117 = load ptr, ptr %11, align 8
  %118 = getelementptr inbounds nuw %struct.RangeTblEntry, ptr %117, i32 0, i32 3
  %119 = load i32, ptr %118, align 8
  %120 = icmp eq i32 %119, 7
  br i1 %120, label %121, label %140

121:                                              ; preds = %116
  %122 = load ptr, ptr %11, align 8
  %123 = getelementptr inbounds nuw %struct.RangeTblEntry, ptr %122, i32 0, i32 4
  %124 = load i32, ptr %123, align 4
  %125 = icmp ne i32 %124, 0
  br i1 %125, label %126, label %140

126:                                              ; preds = %121, %111, %99
  %127 = load ptr, ptr %5, align 8
  %128 = getelementptr inbounds nuw %struct.PlannerInfo, ptr %127, i32 0, i32 2
  %129 = load ptr, ptr %128, align 8
  %130 = getelementptr inbounds nuw %struct.PlannerGlobal, ptr %129, i32 0, i32 14
  %131 = load ptr, ptr %130, align 8
  %132 = load ptr, ptr %11, align 8
  %133 = getelementptr inbounds nuw %struct.RangeTblEntry, ptr %132, i32 0, i32 4
  %134 = load i32, ptr %133, align 4
  %135 = call ptr @lappend_oid(ptr noundef %131, i32 noundef %134)
  %136 = load ptr, ptr %5, align 8
  %137 = getelementptr inbounds nuw %struct.PlannerInfo, ptr %136, i32 0, i32 2
  %138 = load ptr, ptr %137, align 8
  %139 = getelementptr inbounds nuw %struct.PlannerGlobal, ptr %138, i32 0, i32 14
  store ptr %135, ptr %139, align 8
  br label %140

140:                                              ; preds = %126, %121, %116
  call void @llvm.lifetime.end.p0(i64 8, ptr %11) #8
  br label %141

141:                                              ; preds = %140
  %142 = getelementptr inbounds nuw %struct.ForEachState, ptr %10, i32 0, i32 1
  %143 = load i32, ptr %142, align 8
  %144 = add i32 %143, 1
  store i32 %144, ptr %142, align 8
  br label %73, !llvm.loop !25

145:                                              ; preds = %98
  %146 = load ptr, ptr %6, align 8
  %147 = load ptr, ptr %5, align 8
  %148 = call zeroext i1 @query_tree_walker_impl(ptr noundef %146, ptr noundef @extract_query_dependencies_walker, ptr noundef %147, i32 noundef 0)
  store i1 %148, ptr %3, align 1
  store i32 1, ptr %9, align 4
  br label %149

149:                                              ; preds = %145, %54, %33
  call void @llvm.lifetime.end.p0(i64 8, ptr %7) #8
  call void @llvm.lifetime.end.p0(i64 8, ptr %6) #8
  br label %156

150:                                              ; preds = %15
  %151 = load ptr, ptr %5, align 8
  %152 = load ptr, ptr %4, align 8
  call void @fix_expr_common(ptr noundef %151, ptr noundef %152)
  %153 = load ptr, ptr %4, align 8
  %154 = load ptr, ptr %5, align 8
  %155 = call zeroext i1 @expression_tree_walker_impl(ptr noundef %153, ptr noundef @extract_query_dependencies_walker, ptr noundef %154)
  store i1 %155, ptr %3, align 1
  br label %156

156:                                              ; preds = %150, %149, %14
  %157 = load i1, ptr %3, align 1
  ret i1 %157
}