; Function Attrs: nounwind uwtable
define dso_local zeroext i1 @extract_query_dependencies_walker(ptr noundef %0, ptr noundef %1) #0 {
  %3 = icmp eq ptr %0, null
  br i1 %3, label %.loopexit, label %.lr.ph

.lr.ph:                                           ; preds = %2, %tailrecurse
  %ret.known.tr65 = phi i1 [ true, %tailrecurse ], [ false, %2 ]
  %.tr63 = phi ptr [ %19, %tailrecurse ], [ %0, %2 ]
  %4 = load i32, ptr %.tr63, align 4
  %5 = icmp eq i32 %4, 67
  br i1 %5, label %6, label %63

6:                                                ; preds = %.lr.ph
  %7 = getelementptr inbounds nuw i8, ptr %.tr63, i64 4
  %8 = load i32, ptr %7, align 4
  %9 = icmp eq i32 %8, 6
  br i1 %9, label %10, label %.loopexit49

10:                                               ; preds = %6
  %11 = getelementptr inbounds nuw i8, ptr %.tr63, i64 32
  %12 = load ptr, ptr %11, align 8
  %13 = load i32, ptr %12, align 4
  %14 = icmp eq i32 %13, 212
  br i1 %14, label %tailrecurse, label %21

tailrecurse:                                      ; preds = %10
  %15 = getelementptr inbounds nuw i8, ptr %12, i64 16
  %16 = load ptr, ptr %15, align 8
  %17 = tail call zeroext i1 @extract_query_dependencies_walker(ptr noundef %16, ptr noundef %1)
  %18 = getelementptr inbounds nuw i8, ptr %12, i64 24
  %19 = load ptr, ptr %18, align 8
  %20 = icmp eq ptr %19, null
  br i1 %20, label %.loopexit, label %.lr.ph

21:                                               ; preds = %10
  %22 = tail call ptr @UtilityContainsQuery(ptr noundef nonnull %12) #8
  %23 = icmp eq ptr %22, null
  br i1 %23, label %.loopexit, label %.loopexit49

.loopexit49:                                      ; preds = %6, %21
  %.035 = phi ptr [ %22, %21 ], [ %.tr63, %6 ]
  %24 = getelementptr inbounds nuw i8, ptr %.035, i64 52
  %25 = load i8, ptr %24, align 4, !range !4, !noundef !5
  %26 = trunc nuw i8 %25 to i1
  br i1 %26, label %27, label %31

27:                                               ; preds = %.loopexit49
  %28 = getelementptr inbounds nuw i8, ptr %1, i64 16
  %29 = load ptr, ptr %28, align 8
  %30 = getelementptr inbounds nuw i8, ptr %29, i64 149
  store i8 1, ptr %30, align 1
  br label %31

31:                                               ; preds = %27, %.loopexit49
  %32 = getelementptr inbounds nuw i8, ptr %.035, i64 64
  %33 = load ptr, ptr %32, align 8
  %34 = getelementptr inbounds nuw i8, ptr %33, i64 4
  %.not = icmp eq ptr %33, null
  br i1 %.not, label %._crit_edge, label %.lr.ph68

.lr.ph68:                                         ; preds = %31
  %35 = getelementptr inbounds nuw i8, ptr %33, i64 16
  %36 = getelementptr inbounds nuw i8, ptr %1, i64 16
  %37 = load i32, ptr %34, align 4
  %38 = icmp sgt i32 %37, 0
  br i1 %38, label %.lr.ph71, label %._crit_edge

._crit_edge:                                      ; preds = %.thread46, %.lr.ph68, %31
  %39 = tail call zeroext i1 @query_tree_walker_impl(ptr noundef nonnull %.035, ptr noundef nonnull @extract_query_dependencies_walker, ptr noundef %1, i32 noundef 0) #8
  br label %.loopexit

.lr.ph71:                                         ; preds = %.lr.ph68, %.thread46
  %40 = phi i32 [ %60, %.thread46 ], [ %37, %.lr.ph68 ]
  %indvars.iv = phi i64 [ %indvars.iv.next, %.thread46 ], [ 0, %.lr.ph68 ]
  %41 = load ptr, ptr %35, align 8
  %42 = getelementptr inbounds nuw %union.ListCell, ptr %41, i64 %indvars.iv
  %43 = load ptr, ptr %42, align 8
  %44 = getelementptr inbounds nuw i8, ptr %43, i64 24
  %45 = load i32, ptr %44, align 8
  switch i32 %45, label %.thread46 [
    i32 0, label %.lr.ph71._crit_edge
    i32 1, label %46
    i32 7, label %49
  ]

.lr.ph71._crit_edge:                              ; preds = %.lr.ph71
  %.phi.trans.insert = getelementptr inbounds nuw i8, ptr %43, i64 28
  %.pre = load i32, ptr %.phi.trans.insert, align 4
  br label %52

46:                                               ; preds = %.lr.ph71
  %47 = getelementptr inbounds nuw i8, ptr %43, i64 28
  %48 = load i32, ptr %47, align 4
  %.not42 = icmp eq i32 %48, 0
  br i1 %.not42, label %.thread46, label %52

49:                                               ; preds = %.lr.ph71
  %50 = getelementptr inbounds nuw i8, ptr %43, i64 28
  %51 = load i32, ptr %50, align 4
  %.not43 = icmp eq i32 %51, 0
  br i1 %.not43, label %.thread46, label %52

52:                                               ; preds = %.lr.ph71._crit_edge, %49, %46
  %53 = phi i32 [ %.pre, %.lr.ph71._crit_edge ], [ %51, %49 ], [ %48, %46 ]
  %54 = load ptr, ptr %36, align 8
  %55 = getelementptr inbounds nuw i8, ptr %54, i64 112
  %56 = load ptr, ptr %55, align 8
  %57 = tail call ptr @lappend_oid(ptr noundef %56, i32 noundef %53) #8
  %58 = load ptr, ptr %36, align 8
  %59 = getelementptr inbounds nuw i8, ptr %58, i64 112
  store ptr %57, ptr %59, align 8
  %.pre85 = load i32, ptr %34, align 4
  br label %.thread46

.thread46:                                        ; preds = %.lr.ph71, %46, %52, %49
  %60 = phi i32 [ %40, %.lr.ph71 ], [ %40, %46 ], [ %.pre85, %52 ], [ %40, %49 ]
  %indvars.iv.next = add nuw nsw i64 %indvars.iv, 1
  %61 = sext i32 %60 to i64
  %62 = icmp slt i64 %indvars.iv.next, %61
  br i1 %62, label %.lr.ph71, label %._crit_edge

63:                                               ; preds = %.lr.ph
  tail call fastcc void @fix_expr_common(ptr noundef %1, ptr noundef %.tr63)
  %64 = tail call zeroext i1 @expression_tree_walker_impl(ptr noundef nonnull %.tr63, ptr noundef nonnull @extract_query_dependencies_walker, ptr noundef %1) #8
  br label %.loopexit

.loopexit:                                        ; preds = %tailrecurse, %2, %._crit_edge, %21, %63
  %ret.known.tr53 = phi i1 [ %ret.known.tr65, %63 ], [ %ret.known.tr65, %._crit_edge ], [ %ret.known.tr65, %21 ], [ false, %2 ], [ true, %tailrecurse ]
  %.0 = phi i1 [ %64, %63 ], [ %39, %._crit_edge ], [ false, %21 ], [ false, %2 ], [ false, %tailrecurse ]
  %not.ret.known.tr53 = xor i1 %ret.known.tr53, true
  %current.ret.tr48 = select i1 %not.ret.known.tr53, i1 %.0, i1 false
  ret i1 %current.ret.tr48
}